; Function Attrs: mustprogress nofree norecurse nosync nounwind willreturn memory(argmem: read, inaccessiblemem: write) uwtable
define hidden noundef i64 @_ZN6google8protobuf8internal32StringSpaceUsedExcludingSelfLongERKNSt7__cxx1112basic_stringIcSt11char_traitsIcESaIcEEE(ptr noundef nonnull readonly align 8 dereferenceable(32) %0) local_unnamed_addr #5 personality ptr @__gxx_personality_v0 {
  %2 = load ptr, ptr %0, align 8, !tbaa !6
  %.not = icmp ule ptr %0, %2
  %3 = getelementptr inbounds nuw i8, ptr %0, i64 32
  %4 = icmp ult ptr %2, %3
  %or.cond = select i1 %.not, i1 %4, i1 false
  br i1 %or.cond, label %14, label %5

5:                                                ; preds = %1
  %6 = getelementptr inbounds nuw i8, ptr %0, i64 16
  %7 = icmp eq ptr %2, %6
  br i1 %7, label %8, label %_ZNKSt7__cxx1112basic_stringIcSt11char_traitsIcESaIcEE8capacityEv.exit

8:                                                ; preds = %5
  %9 = getelementptr inbounds nuw i8, ptr %0, i64 8
  %10 = load i64, ptr %9, align 8, !tbaa !13
  %11 = icmp ult i64 %10, 16
  tail call void @llvm.assume(i1 %11)
  br label %_ZNKSt7__cxx1112basic_stringIcSt11char_traitsIcESaIcEE8capacityEv.exit

_ZNKSt7__cxx1112basic_stringIcSt11char_traitsIcESaIcEE8capacityEv.exit: ; preds = %5, %8
  %12 = load i64, ptr %6, align 8
  %13 = select i1 %7, i64 15, i64 %12
  br label %14

14:                                               ; preds = %1, %_ZNKSt7__cxx1112basic_stringIcSt11char_traitsIcESaIcEE8capacityEv.exit
  %.0 = phi i64 [ %13, %_ZNKSt7__cxx1112basic_stringIcSt11char_traitsIcESaIcEE8capacityEv.exit ], [ 0, %1 ]
  ret i64 %.0
}